; Function Attrs: mustprogress uwtable
define void @_ZN3nix12FileTransfer6uploadERKNS_19FileTransferRequestE(ptr dead_on_unwind noalias writable sret(%"struct.nix::FileTransferResult") align 8 %0, ptr noundef nonnull align 8 dereferenceable(8) %1, ptr noundef nonnull align 8 dereferenceable(232) %2) local_unnamed_addr #4 align 2 personality ptr @__gxx_personality_v0 {
  %4 = alloca %"class.std::future", align 8
  call void @_ZN3nix12FileTransfer19enqueueFileTransferERKNS_19FileTransferRequestE(ptr dead_on_unwind nonnull writable sret(%"class.std::future") align 8 %4, ptr noundef nonnull align 8 dereferenceable(8) %1, ptr noundef nonnull align 8 dereferenceable(232) %2)
  invoke void @_ZNSt6futureIN3nix18FileTransferResultEE3getEv(ptr dead_on_unwind writable sret(%"struct.nix::FileTransferResult") align 8 %0, ptr noundef nonnull align 8 dereferenceable(16) %4)
          to label %5 unwind label %42

5:                                                ; preds = %3
  %6 = getelementptr inbounds i8, ptr %4, i64 8
  %7 = load ptr, ptr %6, align 8
  %.not.i.i.i.i.i = icmp eq ptr %7, null
  br i1 %.not.i.i.i.i.i, label %_ZNSt6futureIN3nix18FileTransferResultEED2Ev.exit, label %8

8:                                                ; preds = %5
  %9 = getelementptr inbounds i8, ptr %7, i64 8
  %10 = load atomic i64, ptr %9 acquire, align 8
  %11 = icmp eq i64 %10, 4294967297
  %12 = trunc i64 %10 to i32
  br i1 %11, label %13, label %18

13:                                               ; preds = %8
  store i32 0, ptr %9, align 8
  %14 = getelementptr inbounds i8, ptr %7, i64 12
  store i32 0, ptr %14, align 4
  %15 = load ptr, ptr %7, align 8
  %16 = getelementptr inbounds i8, ptr %15, i64 16
  %17 = load ptr, ptr %16, align 8
  call void %17(ptr noundef nonnull align 8 dereferenceable(16) %7) #32
  br label %_ZNSt16_Sp_counted_baseILN9__gnu_cxx12_Lock_policyE2EE24_M_release_last_use_coldEv.exit.sink.split.i.i.i.i.i.i

18:                                               ; preds = %8
  %19 = load i8, ptr @__libc_single_threaded, align 1
  %.not.i.i.i.i.i.i = icmp eq i8 %19, 0
  br i1 %.not.i.i.i.i.i.i, label %22, label %20

20:                                               ; preds = %18
  %21 = add nsw i32 %12, -1
  store i32 %21, ptr %9, align 4
  br label %24

22:                                               ; preds = %18
  %23 = atomicrmw volatile add ptr %9, i32 -1 acq_rel, align 4
  br label %24

24:                                               ; preds = %22, %20
  %.0.i.i.i.i.i.i = phi i32 [ %12, %20 ], [ %23, %22 ]
  %25 = icmp eq i32 %.0.i.i.i.i.i.i, 1
  br i1 %25, label %26, label %_ZNSt6futureIN3nix18FileTransferResultEED2Ev.exit

26:                                               ; preds = %24
  %27 = load ptr, ptr %7, align 8
  %28 = getelementptr inbounds i8, ptr %27, i64 16
  %29 = load ptr, ptr %28, align 8
  call void %29(ptr noundef nonnull align 8 dereferenceable(16) %7) #32
  %30 = getelementptr inbounds i8, ptr %7, i64 12
  %31 = load i8, ptr @__libc_single_threaded, align 1
  %.not.i.i.i.i.i.i.i.i = icmp eq i8 %31, 0
  br i1 %.not.i.i.i.i.i.i.i.i, label %35, label %32

32:                                               ; preds = %26
  %33 = load i32, ptr %30, align 4
  %34 = add nsw i32 %33, -1
  store i32 %34, ptr %30, align 4
  br label %37

35:                                               ; preds = %26
  %36 = atomicrmw volatile add ptr %30, i32 -1 acq_rel, align 4
  br label %37

37:                                               ; preds = %35, %32
  %.0.i.i.i.i.i.i.i.i = phi i32 [ %33, %32 ], [ %36, %35 ]
  %38 = icmp eq i32 %.0.i.i.i.i.i.i.i.i, 1
  br i1 %38, label %_ZNSt16_Sp_counted_baseILN9__gnu_cxx12_Lock_policyE2EE24_M_release_last_use_coldEv.exit.sink.split.i.i.i.i.i.i, label %_ZNSt6futureIN3nix18FileTransferResultEED2Ev.exit

_ZNSt16_Sp_counted_baseILN9__gnu_cxx12_Lock_policyE2EE24_M_release_last_use_coldEv.exit.sink.split.i.i.i.i.i.i: ; preds = %37, %13
  %39 = load ptr, ptr %7, align 8
  %40 = getelementptr inbounds i8, ptr %39, i64 24
  %41 = load ptr, ptr %40, align 8
  call void %41(ptr noundef nonnull align 8 dereferenceable(16) %7) #32
  br label %_ZNSt6futureIN3nix18FileTransferResultEED2Ev.exit

_ZNSt6futureIN3nix18FileTransferResultEED2Ev.exit: ; preds = %5, %24, %37, %_ZNSt16_Sp_counted_baseILN9__gnu_cxx12_Lock_policyE2EE24_M_release_last_use_coldEv.exit.sink.split.i.i.i.i.i.i
  ret void

42:                                               ; preds = %3
  %43 = landingpad { ptr, i32 }
          cleanup
  call void @_ZNSt6futureIN3nix18FileTransferResultEED2Ev(ptr noundef nonnull align 8 dereferenceable(16) %4) #32
  resume { ptr, i32 } %43
}